; Function Attrs: mustprogress nofree norecurse nosync nounwind willreturn memory(read, inaccessiblemem: none) uwtable
define dso_local noundef nonnull align 4 dereferenceable(32) ptr @_ZN4Luau7CodeGen12getNextBlockERNS0_10IrFunctionERKSt6vectorIjSaIjEERNS0_7IrBlockEm(ptr noundef nonnull readonly align 8 captures(none) dereferenceable(624) %0, ptr noundef nonnull readonly align 8 captures(none) dereferenceable(24) %1, ptr noundef nonnull readnone align 4 dereferenceable(32) %2, i64 noundef %3) local_unnamed_addr #10 {
  %5 = getelementptr inbounds nuw i8, ptr %1, i64 8
  %6 = load ptr, ptr %5, align 8, !tbaa !49
  %7 = load ptr, ptr %1, align 8, !tbaa !46
  %8 = ptrtoint ptr %6 to i64
  %9 = ptrtoint ptr %7 to i64
  %10 = sub i64 %8, %9
  %11 = ashr exact i64 %10, 2
  %12 = load ptr, ptr %0, align 8
  br label %13

13:                                               ; preds = %14, %4
  %.014.in = phi i64 [ %3, %4 ], [ %.014, %14 ]
  %.014 = add i64 %.014.in, 1
  %.not15 = icmp ult i64 %.014, %11
  br i1 %.not15, label %14, label %20

14:                                               ; preds = %13
  %15 = getelementptr inbounds nuw i32, ptr %7, i64 %.014
  %16 = load i32, ptr %15, align 4, !tbaa !38
  %17 = zext i32 %16 to i64
  %18 = getelementptr inbounds nuw %"struct.Luau::CodeGen::IrBlock", ptr %12, i64 %17
  %19 = load i8, ptr %18, align 4, !tbaa !29
  %.not = icmp eq i8 %19, 4
  br i1 %.not, label %13, label %20, !llvm.loop !56

20:                                               ; preds = %13, %14
  %spec.select = phi ptr [ %18, %14 ], [ %2, %13 ]
  ret ptr %spec.select
}